target datalayout = "e-m:e-p270:32:32-p271:32:32-p272:64:64-i64:64-i128:128-f80:128-n8:16:32:64-S128"
target triple = "x86_64-pc-linux-gnu"

%struct.stbi__zbuf = type { ptr, ptr, i32, i32, ptr, ptr, ptr, i32, %struct.stbi__zhuffman, %struct.stbi__zhuffman }
%struct.stbi__zhuffman = type { [512 x i16], [16 x i16], [17 x i32], [16 x i16], [288 x i8], [288 x i16] }

; Function Attrs: mustprogress nounwind uwtable
define internal noundef ptr @_ZL12stbi__mallocm(i64 noundef %0) #0 {
  %2 = alloca i64, align 8
  store i64 %0, ptr %2, align 8, !tbaa !40
  %3 = load i64, ptr %2, align 8, !tbaa !40
  %4 = call noalias ptr @malloc(i64 noundef %3) #24
  ret ptr %4
}

; Function Attrs: mustprogress uwtable
define dso_local ptr @stbi_zlib_decode_malloc_guesssize(ptr noundef %0, i32 noundef %1, i32 noundef %2, ptr noundef %3) #2 {
  %5 = alloca ptr, align 8
  %6 = alloca ptr, align 8
  %7 = alloca i32, align 4
  %8 = alloca i32, align 4
  %9 = alloca ptr, align 8
  %10 = alloca %struct.stbi__zbuf, align 8
  %11 = alloca ptr, align 8
  %12 = alloca i32, align 4
  store ptr %0, ptr %6, align 8, !tbaa !5
  store i32 %1, ptr %7, align 4, !tbaa !11
  store i32 %2, ptr %8, align 4, !tbaa !11
  store ptr %3, ptr %9, align 8, !tbaa !13
  call void @llvm.lifetime.start.p0(i64 4096, ptr %10) #22
  call void @llvm.lifetime.start.p0(i64 8, ptr %11) #22
  %13 = load i32, ptr %8, align 4, !tbaa !11
  %14 = sext i32 %13 to i64
  %15 = call noundef ptr @_ZL12stbi__mallocm(i64 noundef %14)
  store ptr %15, ptr %11, align 8, !tbaa !5
  %16 = load ptr, ptr %11, align 8, !tbaa !5
  %17 = icmp eq ptr %16, null
  br i1 %17, label %18, label %19

18:                                               ; preds = %4
  store ptr null, ptr %5, align 8
  store i32 1, ptr %12, align 4
  br label %50

19:                                               ; preds = %4
  %20 = load ptr, ptr %6, align 8, !tbaa !5
  %21 = getelementptr inbounds nuw %struct.stbi__zbuf, ptr %10, i32 0, i32 0
  store ptr %20, ptr %21, align 8, !tbaa !114
  %22 = load ptr, ptr %6, align 8, !tbaa !5
  %23 = load i32, ptr %7, align 4, !tbaa !11
  %24 = sext i32 %23 to i64
  %25 = getelementptr inbounds i8, ptr %22, i64 %24
  %26 = getelementptr inbounds nuw %struct.stbi__zbuf, ptr %10, i32 0, i32 1
  store ptr %25, ptr %26, align 8, !tbaa !117
  %27 = load ptr, ptr %11, align 8, !tbaa !5
  %28 = load i32, ptr %8, align 4, !tbaa !11
  %29 = call noundef i32 @_ZL13stbi__do_zlibP10stbi__zbufPciii(ptr noundef %10, ptr noundef %27, i32 noundef %28, i32 noundef 1, i32 noundef 1)
  %30 = icmp ne i32 %29, 0
  br i1 %30, label %31, label %47

31:                                               ; preds = %19
  %32 = load ptr, ptr %9, align 8, !tbaa !13
  %33 = icmp ne ptr %32, null
  br i1 %33, label %34, label %44

34:                                               ; preds = %31
  %35 = getelementptr inbounds nuw %struct.stbi__zbuf, ptr %10, i32 0, i32 4
  %36 = load ptr, ptr %35, align 8, !tbaa !118
  %37 = getelementptr inbounds nuw %struct.stbi__zbuf, ptr %10, i32 0, i32 5
  %38 = load ptr, ptr %37, align 8, !tbaa !119
  %39 = ptrtoint ptr %36 to i64
  %40 = ptrtoint ptr %38 to i64
  %41 = sub i64 %39, %40
  %42 = trunc i64 %41 to i32
  %43 = load ptr, ptr %9, align 8, !tbaa !13
  store i32 %42, ptr %43, align 4, !tbaa !11
  br label %44

44:                                               ; preds = %34, %31
  %45 = getelementptr inbounds nuw %struct.stbi__zbuf, ptr %10, i32 0, i32 5
  %46 = load ptr, ptr %45, align 8, !tbaa !119
  store ptr %46, ptr %5, align 8
  store i32 1, ptr %12, align 4
  br label %50

47:                                               ; preds = %19
  %48 = getelementptr inbounds nuw %struct.stbi__zbuf, ptr %10, i32 0, i32 5
  %49 = load ptr, ptr %48, align 8, !tbaa !119
  call void @free(ptr noundef %49) #22
  store ptr null, ptr %5, align 8
  store i32 1, ptr %12, align 4
  br label %50

50:                                               ; preds = %47, %44, %18
  call void @llvm.lifetime.end.p0(i64 8, ptr %11) #22
  call void @llvm.lifetime.end.p0(i64 4096, ptr %10) #22
  %51 = load ptr, ptr %5, align 8
  ret ptr %51
}