; Function Attrs: mustprogress nounwind uwtable
define dso_local ptr @stbi_zlib_decode_malloc_guesssize(ptr noundef %0, i32 noundef %1, i32 noundef %2, ptr noundef writeonly %3) local_unnamed_addr #12 {
  %5 = alloca %struct.stbi__zbuf, align 8
  call void @llvm.lifetime.start.p0(i64 4096, ptr nonnull %5) #35
  %6 = sext i32 %2 to i64
  %7 = tail call noalias noundef ptr @malloc(i64 noundef range(i64 -2147483648, 4294967296) %6) #36
  %8 = icmp eq ptr %7, null
  br i1 %8, label %27, label %9

9:                                                ; preds = %4
  store ptr %0, ptr %5, align 8, !tbaa !169
  %10 = sext i32 %1 to i64
  %11 = getelementptr inbounds i8, ptr %0, i64 %10
  %12 = getelementptr inbounds nuw i8, ptr %5, i64 8
  store ptr %11, ptr %12, align 8, !tbaa !172
  %13 = call fastcc noundef i32 @_ZL13stbi__do_zlibP10stbi__zbufPciii(ptr noundef %5, ptr noundef nonnull %7, i32 noundef %2, i32 noundef 1, i32 noundef 1)
  %.not = icmp eq i32 %13, 0
  br i1 %.not, label %24, label %14

14:                                               ; preds = %9
  %.not11 = icmp eq ptr %3, null
  br i1 %.not11, label %._crit_edge, label %15

._crit_edge:                                      ; preds = %14
  %.phi.trans.insert = getelementptr inbounds nuw i8, ptr %5, i64 32
  %.pre = load ptr, ptr %.phi.trans.insert, align 8, !tbaa !173
  br label %27

15:                                               ; preds = %14
  %16 = getelementptr inbounds nuw i8, ptr %5, i64 24
  %17 = load ptr, ptr %16, align 8, !tbaa !174
  %18 = getelementptr inbounds nuw i8, ptr %5, i64 32
  %19 = load ptr, ptr %18, align 8, !tbaa !173
  %20 = ptrtoint ptr %17 to i64
  %21 = ptrtoint ptr %19 to i64
  %22 = sub i64 %20, %21
  %23 = trunc i64 %22 to i32
  store i32 %23, ptr %3, align 4, !tbaa !10
  br label %27

24:                                               ; preds = %9
  %25 = getelementptr inbounds nuw i8, ptr %5, i64 32
  %26 = load ptr, ptr %25, align 8, !tbaa !173
  call void @free(ptr noundef %26) #35
  br label %27

27:                                               ; preds = %15, %._crit_edge, %4, %24
  %.0 = phi ptr [ null, %24 ], [ null, %4 ], [ %.pre, %._crit_edge ], [ %19, %15 ]
  call void @llvm.lifetime.end.p0(i64 4096, ptr nonnull %5) #35
  ret ptr %.0
}